target datalayout = "e-m:e-p270:32:32-p271:32:32-p272:64:64-i64:64-i128:128-f80:128-n8:16:32:64-S128"
target triple = "x86_64-pc-linux-gnu"

@cPKey = global i64 0, align 8
@rb_eTypeError = external global i64, align 8
@.str.54 = private unnamed_addr constant [51 x i8] c"OpenSSL::PKey::PKey can't be instantiated directly\00", align 1

; Function Attrs: nounwind sspstrong uwtable
define internal i64 @ossl_pkey_initialize(i64 noundef %0) #0 {
  %2 = alloca i64, align 8
  store i64 %0, ptr %2, align 8, !tbaa !12
  %3 = load i64, ptr %2, align 8, !tbaa !12
  %4 = load i64, ptr @cPKey, align 8, !tbaa !12
  %5 = call i64 @rb_obj_is_instance_of(i64 noundef %3, i64 noundef %4)
  %6 = icmp ne i64 %5, 0
  br i1 %6, label %7, label %9

7:                                                ; preds = %1
  %8 = load i64, ptr @rb_eTypeError, align 8, !tbaa !12
  call void (i64, ptr, ...) @ossl_raise(i64 noundef %8, ptr noundef @.str.54) #20
  unreachable

9:                                                ; preds = %1
  %10 = load i64, ptr %2, align 8, !tbaa !12
  ret i64 %10
}