; Function Attrs: nounwind sspstrong uwtable
define internal noundef i64 @ossl_pkey_initialize(i64 noundef returned %0) #0 {
  %2 = load i64, ptr @cPKey, align 8, !tbaa !10
  %3 = tail call i64 @rb_obj_is_instance_of(i64 noundef %0, i64 noundef %2) #8
  %.not = icmp eq i64 %3, 0
  br i1 %.not, label %6, label %4

4:                                                ; preds = %1
  %5 = load i64, ptr @rb_eTypeError, align 8, !tbaa !10
  tail call void (i64, ptr, ...) @ossl_raise(i64 noundef %5, ptr noundef nonnull @.str.54) #9
  unreachable

6:                                                ; preds = %1
  ret i64 %0
}